target datalayout = "e-m:e-p270:32:32-p271:32:32-p272:64:64-i64:64-i128:128-f80:128-n8:16:32:64-S128"
target triple = "x86_64-pc-linux-gnu"

%struct.portalhashent = type { [64 x i8], ptr }
%struct.PortalData = type { ptr, ptr, ptr, ptr, ptr, i32, i32, i32, ptr, i32, %struct.QueryCompletion, ptr, ptr, ptr, ptr, i32, i32, i32, i8, i8, ptr, ptr, ptr, ptr, ptr, ptr, ptr, i8, i8, i64, i64, i8 }
%struct.QueryCompletion = type { i32, i64 }
%struct.HASH_SEQ_STATUS = type { ptr, i32, ptr, i8, i32 }

@PortalHashTable = internal global ptr null, align 8
@.str.3 = private unnamed_addr constant [12 x i8] c"portalmem.c\00", align 1
@.str.22 = private unnamed_addr constant [68 x i8] c"portal snapshots (%d) did not account for all active snapshots (%d)\00", align 1
@__func__.ForgetPortalSnapshots = private unnamed_addr constant [22 x i8] c"ForgetPortalSnapshots\00", align 1

; Function Attrs: nounwind uwtable
define dso_local void @ForgetPortalSnapshots() #0 {
  %1 = alloca %struct.HASH_SEQ_STATUS, align 8
  %2 = alloca ptr, align 8
  %3 = alloca i32, align 4
  %4 = alloca i32, align 4
  %5 = alloca ptr, align 8
  call void @llvm.lifetime.start.p0(i64 32, ptr %1) #6
  call void @llvm.lifetime.start.p0(i64 8, ptr %2) #6
  call void @llvm.lifetime.start.p0(i64 4, ptr %3) #6
  store i32 0, ptr %3, align 4
  call void @llvm.lifetime.start.p0(i64 4, ptr %4) #6
  store i32 0, ptr %4, align 4
  %6 = load ptr, ptr @PortalHashTable, align 8
  call void @hash_seq_init(ptr noundef %1, ptr noundef %6)
  br label %7

7:                                                ; preds = %23, %0
  %8 = call ptr @hash_seq_search(ptr noundef %1)
  store ptr %8, ptr %2, align 8
  %9 = icmp ne ptr %8, null
  br i1 %9, label %10, label %24

10:                                               ; preds = %7
  call void @llvm.lifetime.start.p0(i64 8, ptr %5) #6
  %11 = load ptr, ptr %2, align 8
  %12 = getelementptr inbounds nuw %struct.portalhashent, ptr %11, i32 0, i32 1
  %13 = load ptr, ptr %12, align 8
  store ptr %13, ptr %5, align 8
  %14 = load ptr, ptr %5, align 8
  %15 = getelementptr inbounds nuw %struct.PortalData, ptr %14, i32 0, i32 23
  %16 = load ptr, ptr %15, align 8
  %17 = icmp ne ptr %16, null
  br i1 %17, label %18, label %23

18:                                               ; preds = %10
  %19 = load ptr, ptr %5, align 8
  %20 = getelementptr inbounds nuw %struct.PortalData, ptr %19, i32 0, i32 23
  store ptr null, ptr %20, align 8
  %21 = load i32, ptr %3, align 4
  %22 = add i32 %21, 1
  store i32 %22, ptr %3, align 4
  br label %23

23:                                               ; preds = %18, %10
  call void @llvm.lifetime.end.p0(i64 8, ptr %5) #6
  br label %7, !llvm.loop !19

24:                                               ; preds = %7
  br label %25

25:                                               ; preds = %27, %24
  %26 = call zeroext i1 @ActiveSnapshotSet()
  br i1 %26, label %27, label %30

27:                                               ; preds = %25
  call void @PopActiveSnapshot()
  %28 = load i32, ptr %4, align 4
  %29 = add i32 %28, 1
  store i32 %29, ptr %4, align 4
  br label %25, !llvm.loop !20

30:                                               ; preds = %25
  %31 = load i32, ptr %3, align 4
  %32 = load i32, ptr %4, align 4
  %33 = icmp ne i32 %31, %32
  br i1 %33, label %34, label %47

34:                                               ; preds = %30
  br label %35

35:                                               ; preds = %34
  br i1 true, label %36, label %38

36:                                               ; preds = %35
  %37 = call zeroext i1 @errstart_cold(i32 noundef 21, ptr noundef null) #7
  br i1 %37, label %40, label %44

38:                                               ; preds = %35
  %39 = call zeroext i1 @errstart(i32 noundef 21, ptr noundef null)
  br i1 %39, label %40, label %44

40:                                               ; preds = %38, %36
  %41 = load i32, ptr %3, align 4
  %42 = load i32, ptr %4, align 4
  %43 = call i32 (ptr, ...) @errmsg_internal(ptr noundef @.str.22, i32 noundef %41, i32 noundef %42)
  call void @errfinish(ptr noundef @.str.3, i32 noundef 1292, ptr noundef @__func__.ForgetPortalSnapshots)
  br label %44

44:                                               ; preds = %40, %38, %36
  unreachable

45:                                               ; No predecessors!
  br label %46

46:                                               ; preds = %45
  br label %47

47:                                               ; preds = %46, %30
  call void @llvm.lifetime.end.p0(i64 4, ptr %4) #6
  call void @llvm.lifetime.end.p0(i64 4, ptr %3) #6
  call void @llvm.lifetime.end.p0(i64 8, ptr %2) #6
  call void @llvm.lifetime.end.p0(i64 32, ptr %1) #6
  ret void
}